(lp0
S'RiC'
p1
aS''
p2
a(lp3
(dp4
S'a'
p5
S'90.0'
p6
sS'b'
p7
S'57.3'
p8
sS'name'
p9
S'RiC_Servo'
p10
sS'min'
p11
S'-1.57'
p12
sS'max'
p13
S'1.57'
p14
sS'pubHz'
p15
S'10'
p16
sS'isInitPos'
p17
I00
sS'type'
p18
I1
sS'port'
p19
S'1'
p20
sS'initPos'
p21
S'999.0'
p22
saa.